; Function Attrs: mustprogress uwtable
define hidden noundef i64 @_ZNK6google8protobuf15UnknownFieldSet26SpaceUsedExcludingSelfLongEv(ptr noundef nonnull readonly align 8 captures(none) dereferenceable(24) %0) local_unnamed_addr #3 align 2 {
  %2 = load ptr, ptr %0, align 8, !tbaa !23
  %3 = getelementptr inbounds nuw i8, ptr %0, i64 8
  %4 = load ptr, ptr %3, align 8, !tbaa !23
  %5 = icmp eq ptr %2, %4
  br i1 %5, label %.loopexit, label %6

6:                                                ; preds = %1
  %7 = ptrtoint ptr %4 to i64
  %8 = ptrtoint ptr %2 to i64
  %reass.sub = sub i64 %7, %8
  %9 = add i64 %reass.sub, 24
  br label %10

10:                                               ; preds = %6, %26
  %.0914 = phi i64 [ %9, %6 ], [ %.1, %26 ]
  %.sroa.010.013 = phi ptr [ %2, %6 ], [ %27, %26 ]
  %11 = getelementptr inbounds nuw i8, ptr %.sroa.010.013, i64 4
  %12 = load i32, ptr %11, align 4, !tbaa !13
  switch i32 %12, label %26 [
    i32 3, label %13
    i32 4, label %19
  ]

13:                                               ; preds = %10
  %14 = getelementptr inbounds nuw i8, ptr %.sroa.010.013, i64 8
  %15 = load ptr, ptr %14, align 8, !tbaa !16
  %16 = tail call noundef i64 @_ZN6google8protobuf8internal32StringSpaceUsedExcludingSelfLongERKNSt7__cxx1112basic_stringIcSt11char_traitsIcESaIcEEE(ptr noundef nonnull align 8 dereferenceable(32) %15)
  %17 = add i64 %.0914, 32
  %18 = add i64 %17, %16
  br label %26

19:                                               ; preds = %10
  %20 = getelementptr inbounds nuw i8, ptr %.sroa.010.013, i64 8
  %21 = load ptr, ptr %20, align 8, !tbaa !16
  %22 = tail call noundef i32 @_ZNK6google8protobuf15UnknownFieldSet22SpaceUsedExcludingSelfEv(ptr noundef nonnull align 8 dereferenceable(24) %21)
  %23 = sext i32 %22 to i64
  %24 = add i64 %.0914, 24
  %25 = add i64 %24, %23
  br label %26

26:                                               ; preds = %10, %19, %13
  %.1 = phi i64 [ %.0914, %10 ], [ %25, %19 ], [ %18, %13 ]
  %27 = getelementptr inbounds nuw i8, ptr %.sroa.010.013, i64 16
  %.not = icmp eq ptr %27, %4
  br i1 %.not, label %.loopexit, label %10

.loopexit:                                        ; preds = %26, %1
  %.0 = phi i64 [ 0, %1 ], [ %.1, %26 ]
  ret i64 %.0
}